target datalayout = "e-m:e-p270:32:32-p271:32:32-p272:64:64-i64:64-i128:128-f80:128-n8:16:32:64-S128"
target triple = "x86_64-pc-linux-gnu"

%struct.tMPI_Thread_key_t = type { %struct.tMPI_Atomic, ptr }
%struct.tMPI_Atomic = type { i32, [60 x i8] }
%struct.tmpi_datatype_ = type { i64, ptr, i32, ptr, i32 }
%struct.coll_env = type { ptr, %struct.coll_env_coll, i32 }
%struct.coll_env_coll = type { %struct.tMPI_Atomic, %struct.tMPI_Atomic, ptr }
%struct.coll_env_thread = type { %struct.tMPI_Atomic, %struct.tMPI_Atomic, i32, ptr, ptr, ptr, %struct.tMPI_Event_t, %struct.tMPI_Event_t, ptr }
%struct.tMPI_Event_t = type { %struct.tMPI_Atomic, i32 }
%struct.tmpi_comm_ = type { %struct.tmpi_group_, %struct.tMPI_Barrier_t, ptr, ptr, i32, ptr, ptr, ptr, ptr, %struct.tMPI_Thread_mutex_t, %struct.tMPI_Thread_cond_t, %struct.tMPI_Thread_cond_t, ptr, ptr, ptr, ptr, ptr, ptr, %struct.tMPI_Atomic }
%struct.tmpi_group_ = type { i32, ptr }
%struct.tMPI_Barrier_t = type { %struct.tMPI_Atomic, i32, %struct.tMPI_Atomic }
%struct.tMPI_Thread_mutex_t = type { %struct.tMPI_Atomic, ptr }
%struct.tMPI_Thread_cond_t = type { %struct.tMPI_Atomic, ptr }

@id_key = external global %struct.tMPI_Thread_key_t, align 8
@TMPI_COMM_WORLD = external global ptr, align 8

; Function Attrs: mustprogress nounwind uwtable
define internal noundef i32 @_ZL21tMPI_Atomic_fetch_addP11tMPI_Atomici(ptr noundef %0, i32 noundef %1) #3 {
  %3 = alloca ptr, align 8
  %4 = alloca i32, align 4
  store ptr %0, ptr %3, align 8
  store volatile i32 %1, ptr %4, align 4
  %5 = load ptr, ptr %3, align 8
  %6 = getelementptr inbounds %struct.tMPI_Atomic, ptr %5, i32 0, i32 0
  %7 = load volatile i32, ptr %4, align 4
  %8 = atomicrmw add ptr %6, i32 %7 seq_cst, align 4
  ret i32 %8
}

; Function Attrs: mustprogress uwtable
define noundef i32 @_Z12tMPI_ScatterPKviP14tmpi_datatype_PviS2_iP10tmpi_comm_(ptr noundef %0, i32 noundef %1, ptr noundef %2, ptr noundef %3, i32 noundef %4, ptr noundef %5, i32 noundef %6, ptr noundef %7) #0 {
  %9 = alloca i32, align 4
  %10 = alloca ptr, align 8
  %11 = alloca i32, align 4
  %12 = alloca ptr, align 8
  %13 = alloca ptr, align 8
  %14 = alloca i32, align 4
  %15 = alloca ptr, align 8
  %16 = alloca i32, align 4
  %17 = alloca ptr, align 8
  %18 = alloca i32, align 4
  %19 = alloca ptr, align 8
  %20 = alloca i32, align 4
  %21 = alloca i32, align 4
  %22 = alloca ptr, align 8
  %23 = alloca %struct.tMPI_Thread_key_t, align 8
  %24 = alloca i32, align 4
  %25 = alloca i64, align 8
  %26 = alloca i64, align 8
  %27 = alloca i64, align 8
  store ptr %0, ptr %10, align 8
  store i32 %1, ptr %11, align 4
  store ptr %2, ptr %12, align 8
  store ptr %3, ptr %13, align 8
  store i32 %4, ptr %14, align 4
  store ptr %5, ptr %15, align 8
  store i32 %6, ptr %16, align 4
  store ptr %7, ptr %17, align 8
  store i32 0, ptr %21, align 4
  call void @llvm.memcpy.p0.p0.i64(ptr align 8 %23, ptr align 8 @id_key, i64 72, i1 false)
  %28 = call noundef ptr @_Z23tMPI_Thread_getspecific17tMPI_Thread_key_t(ptr noundef byval(%struct.tMPI_Thread_key_t) align 8 %23)
  store ptr %28, ptr %22, align 8
  %29 = load ptr, ptr %17, align 8
  %30 = icmp ne ptr %29, null
  br i1 %30, label %34, label %31

31:                                               ; preds = %8
  %32 = load ptr, ptr @TMPI_COMM_WORLD, align 8
  %33 = call noundef i32 @_Z10tMPI_ErrorP10tmpi_comm_i(ptr noundef %32, i32 noundef 6)
  store i32 %33, ptr %9, align 4
  br label %200

34:                                               ; preds = %8
  %35 = load ptr, ptr %17, align 8
  %36 = load ptr, ptr %22, align 8
  %37 = call noundef i32 @_Z19tMPI_Comm_seek_rankP10tmpi_comm_P11tmpi_thread(ptr noundef %35, ptr noundef %36)
  store i32 %37, ptr %20, align 4
  %38 = load ptr, ptr %17, align 8
  %39 = load i32, ptr %20, align 4
  %40 = call noundef ptr @_Z12tMPI_Get_cevP10tmpi_comm_iPi(ptr noundef %38, i32 noundef %39, ptr noundef %18)
  store ptr %40, ptr %19, align 8
  %41 = load i32, ptr %20, align 4
  %42 = load i32, ptr %16, align 4
  %43 = icmp eq i32 %41, %42
  br i1 %43, label %44, label %181

44:                                               ; preds = %34
  %45 = load ptr, ptr %12, align 8
  %46 = getelementptr inbounds %struct.tmpi_datatype_, ptr %45, i32 0, i32 0
  %47 = load i64, ptr %46, align 8
  %48 = load i32, ptr %11, align 4
  %49 = sext i32 %48 to i64
  %50 = mul i64 %47, %49
  store i64 %50, ptr %25, align 8
  store i64 0, ptr %26, align 8
  %51 = load ptr, ptr %10, align 8
  %52 = icmp ne ptr %51, null
  br i1 %52, label %56, label %53

53:                                               ; preds = %44
  %54 = load ptr, ptr %17, align 8
  %55 = call noundef i32 @_Z10tMPI_ErrorP10tmpi_comm_i(ptr noundef %54, i32 noundef 17)
  store i32 %55, ptr %9, align 4
  br label %200

56:                                               ; preds = %44
  %57 = load ptr, ptr %19, align 8
  %58 = getelementptr inbounds %struct.coll_env, ptr %57, i32 0, i32 0
  %59 = load ptr, ptr %58, align 8
  %60 = load i32, ptr %20, align 4
  %61 = sext i32 %60 to i64
  %62 = getelementptr inbounds %struct.coll_env_thread, ptr %59, i64 %61
  %63 = getelementptr inbounds %struct.coll_env_thread, ptr %62, i32 0, i32 2
  store i32 4, ptr %63, align 8
  %64 = load ptr, ptr %12, align 8
  %65 = load ptr, ptr %19, align 8
  %66 = getelementptr inbounds %struct.coll_env, ptr %65, i32 0, i32 0
  %67 = load ptr, ptr %66, align 8
  %68 = load i32, ptr %20, align 4
  %69 = sext i32 %68 to i64
  %70 = getelementptr inbounds %struct.coll_env_thread, ptr %67, i64 %69
  %71 = getelementptr inbounds %struct.coll_env_thread, ptr %70, i32 0, i32 3
  store ptr %64, ptr %71, align 8
  fence seq_cst
  %72 = load ptr, ptr %19, align 8
  %73 = getelementptr inbounds %struct.coll_env, ptr %72, i32 0, i32 2
  %74 = load i32, ptr %73, align 8
  %75 = sub nsw i32 %74, 1
  %76 = load ptr, ptr %19, align 8
  %77 = getelementptr inbounds %struct.coll_env, ptr %76, i32 0, i32 0
  %78 = load ptr, ptr %77, align 8
  %79 = load i32, ptr %20, align 4
  %80 = sext i32 %79 to i64
  %81 = getelementptr inbounds %struct.coll_env_thread, ptr %78, i64 %80
  %82 = getelementptr inbounds %struct.coll_env_thread, ptr %81, i32 0, i32 1
  %83 = getelementptr inbounds %struct.tMPI_Atomic, ptr %82, i32 0, i32 0
  store i32 %75, ptr %83, align 8
  store i32 0, ptr %24, align 4
  br label %84

84:                                               ; preds = %129, %56
  %85 = load i32, ptr %24, align 4
  %86 = load ptr, ptr %17, align 8
  %87 = getelementptr inbounds %struct.tmpi_comm_, ptr %86, i32 0, i32 0
  %88 = getelementptr inbounds %struct.tmpi_group_, ptr %87, i32 0, i32 0
  %89 = load i32, ptr %88, align 8
  %90 = icmp slt i32 %85, %89
  br i1 %90, label %91, label %132

91:                                               ; preds = %84
  %92 = load ptr, ptr %12, align 8
  %93 = getelementptr inbounds %struct.tmpi_datatype_, ptr %92, i32 0, i32 0
  %94 = load i64, ptr %93, align 8
  %95 = load i32, ptr %11, align 4
  %96 = sext i32 %95 to i64
  %97 = mul i64 %94, %96
  %98 = load i64, ptr %26, align 8
  %99 = add i64 %98, %97
  store i64 %99, ptr %26, align 8
  %100 = load i64, ptr %25, align 8
  %101 = load ptr, ptr %19, align 8
  %102 = getelementptr inbounds %struct.coll_env, ptr %101, i32 0, i32 0
  %103 = load ptr, ptr %102, align 8
  %104 = load i32, ptr %20, align 4
  %105 = sext i32 %104 to i64
  %106 = getelementptr inbounds %struct.coll_env_thread, ptr %103, i64 %105
  %107 = getelementptr inbounds %struct.coll_env_thread, ptr %106, i32 0, i32 5
  %108 = load ptr, ptr %107, align 8
  %109 = load i32, ptr %24, align 4
  %110 = sext i32 %109 to i64
  %111 = getelementptr inbounds i64, ptr %108, i64 %110
  store i64 %100, ptr %111, align 8
  %112 = load ptr, ptr %10, align 8
  %113 = load i64, ptr %25, align 8
  %114 = load i32, ptr %24, align 4
  %115 = sext i32 %114 to i64
  %116 = mul i64 %113, %115
  %117 = getelementptr inbounds i8, ptr %112, i64 %116
  %118 = load ptr, ptr %19, align 8
  %119 = getelementptr inbounds %struct.coll_env, ptr %118, i32 0, i32 0
  %120 = load ptr, ptr %119, align 8
  %121 = load i32, ptr %20, align 4
  %122 = sext i32 %121 to i64
  %123 = getelementptr inbounds %struct.coll_env_thread, ptr %120, i64 %122
  %124 = getelementptr inbounds %struct.coll_env_thread, ptr %123, i32 0, i32 4
  %125 = load ptr, ptr %124, align 8
  %126 = load i32, ptr %24, align 4
  %127 = sext i32 %126 to i64
  %128 = getelementptr inbounds ptr, ptr %125, i64 %127
  store ptr %117, ptr %128, align 8
  br label %129

129:                                              ; preds = %91
  %130 = load i32, ptr %24, align 4
  %131 = add nsw i32 %130, 1
  store i32 %131, ptr %24, align 4
  br label %84, !llvm.loop !4

132:                                              ; preds = %84
  store i32 0, ptr %24, align 4
  br label %133

133:                                              ; preds = %154, %132
  %134 = load i32, ptr %24, align 4
  %135 = load ptr, ptr %19, align 8
  %136 = getelementptr inbounds %struct.coll_env, ptr %135, i32 0, i32 2
  %137 = load i32, ptr %136, align 8
  %138 = icmp slt i32 %134, %137
  br i1 %138, label %139, label %157

139:                                              ; preds = %133
  %140 = load i32, ptr %24, align 4
  %141 = load i32, ptr %20, align 4
  %142 = icmp ne i32 %140, %141
  br i1 %142, label %143, label %153

143:                                              ; preds = %139
  fence seq_cst
  %144 = load ptr, ptr %19, align 8
  %145 = getelementptr inbounds %struct.coll_env, ptr %144, i32 0, i32 0
  %146 = load ptr, ptr %145, align 8
  %147 = load i32, ptr %24, align 4
  %148 = sext i32 %147 to i64
  %149 = getelementptr inbounds %struct.coll_env_thread, ptr %146, i64 %148
  %150 = getelementptr inbounds %struct.coll_env_thread, ptr %149, i32 0, i32 7
  %151 = getelementptr inbounds %struct.tMPI_Event_t, ptr %150, i32 0, i32 0
  %152 = call noundef i32 @_ZL21tMPI_Atomic_fetch_addP11tMPI_Atomici(ptr noundef %151, i32 noundef 1)
  br label %153

153:                                              ; preds = %143, %139
  br label %154

154:                                              ; preds = %153
  %155 = load i32, ptr %24, align 4
  %156 = add nsw i32 %155, 1
  store i32 %156, ptr %24, align 4
  br label %133, !llvm.loop !6

157:                                              ; preds = %133
  %158 = load ptr, ptr %13, align 8
  %159 = icmp ne ptr %158, null
  br i1 %159, label %160, label %178

160:                                              ; preds = %157
  %161 = load ptr, ptr %17, align 8
  %162 = load ptr, ptr %12, align 8
  %163 = load ptr, ptr %15, align 8
  %164 = load i64, ptr %25, align 8
  %165 = load ptr, ptr %15, align 8
  %166 = getelementptr inbounds %struct.tmpi_datatype_, ptr %165, i32 0, i32 0
  %167 = load i64, ptr %166, align 8
  %168 = load i32, ptr %14, align 4
  %169 = sext i32 %168 to i64
  %170 = mul i64 %167, %169
  %171 = load ptr, ptr %10, align 8
  %172 = load i64, ptr %25, align 8
  %173 = load i32, ptr %20, align 4
  %174 = sext i32 %173 to i64
  %175 = mul i64 %172, %174
  %176 = getelementptr inbounds i8, ptr %171, i64 %175
  %177 = load ptr, ptr %13, align 8
  call void @_Z19tMPI_Coll_root_xferP10tmpi_comm_P14tmpi_datatype_S2_mmPvS3_Pi(ptr noundef %161, ptr noundef %162, ptr noundef %163, i64 noundef %164, i64 noundef %170, ptr noundef %176, ptr noundef %177, ptr noundef %21)
  br label %178

178:                                              ; preds = %160, %157
  %179 = load ptr, ptr %19, align 8
  %180 = load i32, ptr %20, align 4
  call void @_Z20tMPI_Wait_for_othersP8coll_envi(ptr noundef %179, i32 noundef %180)
  br label %198

181:                                              ; preds = %34
  %182 = load i32, ptr %14, align 4
  %183 = sext i32 %182 to i64
  %184 = load ptr, ptr %15, align 8
  %185 = getelementptr inbounds %struct.tmpi_datatype_, ptr %184, i32 0, i32 0
  %186 = load i64, ptr %185, align 8
  %187 = mul i64 %183, %186
  store i64 %187, ptr %27, align 8
  %188 = load ptr, ptr %22, align 8
  %189 = load ptr, ptr %19, align 8
  %190 = load i32, ptr %20, align 4
  call void @_Z18tMPI_Wait_for_dataP11tmpi_threadP8coll_envi(ptr noundef %188, ptr noundef %189, i32 noundef %190)
  %191 = load ptr, ptr %17, align 8
  %192 = load ptr, ptr %19, align 8
  %193 = load i32, ptr %16, align 4
  %194 = load i32, ptr %20, align 4
  %195 = load ptr, ptr %15, align 8
  %196 = load i64, ptr %27, align 8
  %197 = load ptr, ptr %13, align 8
  call void @_Z14tMPI_Mult_recvP10tmpi_comm_P8coll_enviiiP14tmpi_datatype_mPvPi(ptr noundef %191, ptr noundef %192, i32 noundef %193, i32 noundef %194, i32 noundef 4, ptr noundef %195, i64 noundef %196, ptr noundef %197, ptr noundef %21)
  br label %198

198:                                              ; preds = %181, %178
  %199 = load i32, ptr %21, align 4
  store i32 %199, ptr %9, align 4
  br label %200

200:                                              ; preds = %198, %53, %31
  %201 = load i32, ptr %9, align 4
  ret i32 %201
}