; Function Attrs: mustprogress uwtable
define noundef i32 @_Z12tMPI_ScatterPKviP14tmpi_datatype_PviS2_iP10tmpi_comm_(ptr noundef %0, i32 noundef %1, ptr noundef %2, ptr noundef %3, i32 noundef %4, ptr noundef %5, i32 noundef %6, ptr noundef %7) local_unnamed_addr #0 {
  %9 = alloca i32, align 4
  %10 = alloca i32, align 4
  %11 = alloca i32, align 4
  store i32 0, ptr %11, align 4
  %12 = tail call noundef ptr @_Z23tMPI_Thread_getspecific17tMPI_Thread_key_t(ptr noundef nonnull byval(%struct.tMPI_Thread_key_t) align 8 @id_key)
  %.not = icmp eq ptr %7, null
  br i1 %.not, label %13, label %16

13:                                               ; preds = %8
  %14 = load ptr, ptr @TMPI_COMM_WORLD, align 8
  %15 = tail call noundef i32 @_Z10tMPI_ErrorP10tmpi_comm_i(ptr noundef %14, i32 noundef 6)
  br label %77

16:                                               ; preds = %8
  %17 = tail call noundef i32 @_Z19tMPI_Comm_seek_rankP10tmpi_comm_P11tmpi_thread(ptr noundef nonnull %7, ptr noundef %12)
  %18 = call noundef ptr @_Z12tMPI_Get_cevP10tmpi_comm_iPi(ptr noundef nonnull %7, i32 noundef %17, ptr noundef nonnull %10)
  %19 = icmp eq i32 %17, %6
  br i1 %19, label %20, label %71

20:                                               ; preds = %16
  %21 = load i64, ptr %2, align 8
  %22 = sext i32 %1 to i64
  %23 = mul i64 %21, %22
  %.not75 = icmp eq ptr %0, null
  br i1 %.not75, label %24, label %26

24:                                               ; preds = %20
  %25 = call noundef i32 @_Z10tMPI_ErrorP10tmpi_comm_i(ptr noundef nonnull %7, i32 noundef 17)
  br label %77

26:                                               ; preds = %20
  %27 = load ptr, ptr %18, align 8
  %28 = sext i32 %6 to i64
  %29 = getelementptr inbounds %struct.coll_env_thread, ptr %27, i64 %28, i32 2
  store i32 4, ptr %29, align 8
  %30 = load ptr, ptr %18, align 8
  %31 = getelementptr inbounds %struct.coll_env_thread, ptr %30, i64 %28, i32 3
  store ptr %2, ptr %31, align 8
  fence seq_cst
  %32 = getelementptr inbounds i8, ptr %18, i64 144
  %33 = load i32, ptr %32, align 8
  %34 = add nsw i32 %33, -1
  %35 = load ptr, ptr %18, align 8
  %36 = getelementptr inbounds %struct.coll_env_thread, ptr %35, i64 %28, i32 1
  store i32 %34, ptr %36, align 8
  %37 = load i32, ptr %7, align 8
  %38 = icmp sgt i32 %37, 0
  br i1 %38, label %.lr.ph, label %.preheader

.preheader:                                       ; preds = %.lr.ph, %26
  %39 = load i32, ptr %32, align 8
  %40 = icmp sgt i32 %39, 0
  br i1 %40, label %.lr.ph80.preheader, label %._crit_edge

.lr.ph80.preheader:                               ; preds = %.preheader
  %41 = zext i32 %6 to i64
  br label %.lr.ph80

.lr.ph:                                           ; preds = %26, %.lr.ph
  %indvars.iv = phi i64 [ %indvars.iv.next, %.lr.ph ], [ 0, %26 ]
  %42 = load ptr, ptr %18, align 8
  %43 = getelementptr inbounds %struct.coll_env_thread, ptr %42, i64 %28, i32 5
  %44 = load ptr, ptr %43, align 8
  %45 = getelementptr inbounds i64, ptr %44, i64 %indvars.iv
  store i64 %23, ptr %45, align 8
  %46 = mul i64 %23, %indvars.iv
  %47 = getelementptr inbounds i8, ptr %0, i64 %46
  %48 = load ptr, ptr %18, align 8
  %49 = getelementptr inbounds %struct.coll_env_thread, ptr %48, i64 %28, i32 4
  %50 = load ptr, ptr %49, align 8
  %51 = getelementptr inbounds ptr, ptr %50, i64 %indvars.iv
  store ptr %47, ptr %51, align 8
  %indvars.iv.next = add nuw nsw i64 %indvars.iv, 1
  %52 = load i32, ptr %7, align 8
  %53 = sext i32 %52 to i64
  %54 = icmp slt i64 %indvars.iv.next, %53
  br i1 %54, label %.lr.ph, label %.preheader, !llvm.loop !4

.lr.ph80:                                         ; preds = %.lr.ph80.preheader, %60
  %55 = phi i32 [ %39, %.lr.ph80.preheader ], [ %61, %60 ]
  %indvars.iv82 = phi i64 [ 0, %.lr.ph80.preheader ], [ %indvars.iv.next83, %60 ]
  %.not77 = icmp eq i64 %indvars.iv82, %41
  br i1 %.not77, label %60, label %56

56:                                               ; preds = %.lr.ph80
  fence seq_cst
  %57 = load ptr, ptr %18, align 8
  %58 = getelementptr inbounds %struct.coll_env_thread, ptr %57, i64 %indvars.iv82, i32 7
  call void @llvm.lifetime.start.p0(i64 4, ptr nonnull %9)
  store volatile i32 1, ptr %9, align 4
  %.0..0..0..0..0..0..i = load volatile i32, ptr %9, align 4
  %59 = atomicrmw add ptr %58, i32 %.0..0..0..0..0..0..i seq_cst, align 4
  call void @llvm.lifetime.end.p0(i64 4, ptr nonnull %9)
  %.pre = load i32, ptr %32, align 8
  br label %60

60:                                               ; preds = %.lr.ph80, %56
  %61 = phi i32 [ %55, %.lr.ph80 ], [ %.pre, %56 ]
  %indvars.iv.next83 = add nuw nsw i64 %indvars.iv82, 1
  %62 = sext i32 %61 to i64
  %63 = icmp slt i64 %indvars.iv.next83, %62
  br i1 %63, label %.lr.ph80, label %._crit_edge, !llvm.loop !6

._crit_edge:                                      ; preds = %60, %.preheader
  %.not76 = icmp eq ptr %3, null
  br i1 %.not76, label %70, label %64

64:                                               ; preds = %._crit_edge
  %65 = load i64, ptr %5, align 8
  %66 = sext i32 %4 to i64
  %67 = mul i64 %65, %66
  %68 = mul i64 %23, %28
  %69 = getelementptr inbounds i8, ptr %0, i64 %68
  call void @_Z19tMPI_Coll_root_xferP10tmpi_comm_P14tmpi_datatype_S2_mmPvS3_Pi(ptr noundef nonnull %7, ptr noundef nonnull %2, ptr noundef nonnull %5, i64 noundef %23, i64 noundef %67, ptr noundef nonnull %69, ptr noundef nonnull %3, ptr noundef nonnull %11)
  br label %70

70:                                               ; preds = %64, %._crit_edge
  call void @_Z20tMPI_Wait_for_othersP8coll_envi(ptr noundef nonnull %18, i32 noundef %6)
  br label %75

71:                                               ; preds = %16
  %72 = sext i32 %4 to i64
  %73 = load i64, ptr %5, align 8
  %74 = mul i64 %73, %72
  call void @_Z18tMPI_Wait_for_dataP11tmpi_threadP8coll_envi(ptr noundef %12, ptr noundef %18, i32 noundef %17)
  call void @_Z14tMPI_Mult_recvP10tmpi_comm_P8coll_enviiiP14tmpi_datatype_mPvPi(ptr noundef nonnull %7, ptr noundef %18, i32 noundef %6, i32 noundef %17, i32 noundef 4, ptr noundef nonnull %5, i64 noundef %74, ptr noundef %3, ptr noundef nonnull %11)
  br label %75

75:                                               ; preds = %71, %70
  %76 = load i32, ptr %11, align 4
  br label %77

77:                                               ; preds = %75, %24, %13
  %.0 = phi i32 [ %76, %75 ], [ %25, %24 ], [ %15, %13 ]
  ret i32 %.0
}